target datalayout = "e-m:e-p270:32:32-p271:32:32-p272:64:64-i64:64-i128:128-f80:128-n8:16:32:64-S128"
target triple = "x86_64-pc-linux-gnu"

%struct._object = type { %union.anon.173, ptr }
%union.anon.173 = type { i64 }
%"class.pybind11::object" = type { %"class.pybind11::handle" }
%"class.pybind11::handle" = type { ptr }
%"class.pybind11::class_" = type { %"class.pybind11::detail::generic_type" }
%"class.pybind11::detail::generic_type" = type { %"class.pybind11::object" }

@.str = private unnamed_addr constant [16 x i8] c"RaycastingScene\00", align 1

; Function Attrs: alwaysinline mustprogress nounwind ssp uwtable
define internal noundef i32 @_ZL14_Py_IsImmortalP7_object(ptr noundef %0) #5 {
  %2 = alloca ptr, align 8
  store ptr %0, ptr %2, align 8, !tbaa !275
  %3 = load ptr, ptr %2, align 8, !tbaa !275
  %4 = getelementptr inbounds nuw %struct._object, ptr %3, i32 0, i32 0
  %5 = load i64, ptr %4, align 8, !tbaa !49
  %6 = trunc i64 %5 to i32
  %7 = icmp slt i32 %6, 0
  %8 = zext i1 %7 to i32
  ret i32 %8
}

; Function Attrs: alwaysinline mustprogress ssp uwtable
define internal void @_ZL9Py_DECREFP7_object(ptr noundef %0) #13 {
  %2 = alloca ptr, align 8
  store ptr %0, ptr %2, align 8, !tbaa !275
  %3 = load ptr, ptr %2, align 8, !tbaa !275
  %4 = call noundef i32 @_ZL14_Py_IsImmortalP7_object(ptr noundef %3)
  %5 = icmp ne i32 %4, 0
  br i1 %5, label %6, label %7

6:                                                ; preds = %1
  br label %15

7:                                                ; preds = %1
  %8 = load ptr, ptr %2, align 8, !tbaa !275
  %9 = getelementptr inbounds nuw %struct._object, ptr %8, i32 0, i32 0
  %10 = load i64, ptr %9, align 8, !tbaa !49
  %11 = add nsw i64 %10, -1
  store i64 %11, ptr %9, align 8, !tbaa !49
  %12 = icmp eq i64 %11, 0
  br i1 %12, label %13, label %15

13:                                               ; preds = %7
  %14 = load ptr, ptr %2, align 8, !tbaa !275
  call void @_Py_Dealloc(ptr noundef %14)
  br label %15

15:                                               ; preds = %6, %13, %7
  ret void
}

; Function Attrs: inlinehint mustprogress ssp uwtable
define internal void @_ZL10Py_XDECREFP7_object(ptr noundef %0) #16 {
  %2 = alloca ptr, align 8
  store ptr %0, ptr %2, align 8, !tbaa !275
  %3 = load ptr, ptr %2, align 8, !tbaa !275
  %4 = icmp ne ptr %3, null
  br i1 %4, label %5, label %7

5:                                                ; preds = %1
  %6 = load ptr, ptr %2, align 8, !tbaa !275
  call void @_ZL9Py_DECREFP7_object(ptr noundef %6)
  br label %7

7:                                                ; preds = %5, %1
  ret void
}

; Function Attrs: mustprogress ssp uwtable
define linkonce_odr hidden noundef nonnull align 8 dereferenceable(8) ptr @_ZNKR8pybind116handle7dec_refEv(ptr noundef nonnull align 8 dereferenceable(8) %0) #3 comdat align 2 !type !350 {
  %2 = alloca ptr, align 8
  store ptr %0, ptr %2, align 8, !tbaa !282
  %3 = load ptr, ptr %2, align 8
  %4 = getelementptr inbounds nuw %"class.pybind11::handle", ptr %3, i32 0, i32 0
  %5 = load ptr, ptr %4, align 8, !tbaa !280
  call void @_ZL10Py_XDECREFP7_object(ptr noundef %5)
  ret ptr %3
}

; Function Attrs: mustprogress nounwind ssp uwtable
define linkonce_odr hidden void @_ZN8pybind116objectD2Ev(ptr noundef nonnull align 8 dereferenceable(8) %0) unnamed_addr #1 comdat align 2 personality ptr @__gxx_personality_v0 {
  %2 = alloca ptr, align 8
  store ptr %0, ptr %2, align 8, !tbaa !278
  %3 = load ptr, ptr %2, align 8
  %4 = invoke noundef nonnull align 8 dereferenceable(8) ptr @_ZNKR8pybind116handle7dec_refEv(ptr noundef nonnull align 8 dereferenceable(8) %3)
          to label %5 unwind label %6

5:                                                ; preds = %1
  ret void

6:                                                ; preds = %1
  %7 = landingpad { ptr, i32 }
          catch ptr null
  %8 = extractvalue { ptr, i32 } %7, 0
  call void @__clang_call_terminate(ptr %8) #31
  unreachable
}

; Function Attrs: mustprogress ssp uwtable
define hidden void @_ZN6open3d1t8geometry36pybind_raycasting_scene_declarationsERN8pybind117module_E(ptr noundef nonnull align 8 dereferenceable(8) %0) #3 {
  %2 = alloca ptr, align 8
  %3 = alloca %"class.pybind11::class_", align 8
  %4 = alloca %"class.pybind11::handle", align 8
  store ptr %0, ptr %2, align 8, !tbaa !149
  call void @llvm.lifetime.start.p0(i64 8, ptr %3) #7
  %5 = load ptr, ptr %2, align 8, !tbaa !149
  call void @llvm.memcpy.p0.p0.i64(ptr align 8 %4, ptr align 8 %5, i64 8, i1 false)
  %6 = getelementptr inbounds nuw %"class.pybind11::handle", ptr %4, i32 0, i32 0
  %7 = load ptr, ptr %6, align 8
  call void @_ZN8pybind116class_IN6open3d1t8geometry15RaycastingSceneEJEEC2IJA1350_cEEENS_6handleEPKcDpRKT_(ptr noundef nonnull align 8 dereferenceable(8) %3, ptr %7, ptr noundef @.str, ptr noundef nonnull align 1 dereferenceable(1350) @.str.6)
  call void @_ZN8pybind116objectD2Ev(ptr noundef nonnull align 8 dereferenceable(8) %3) #7
  call void @llvm.lifetime.end.p0(i64 8, ptr %3) #7
  ret void
}